target datalayout = "e-m:e-p270:32:32-p271:32:32-p272:64:64-i64:64-i128:128-f80:128-n8:16:32:64-S128"
target triple = "x86_64-pc-linux-gnu"

; Function Attrs: mustprogress nounwind uwtable
define linkonce_odr noundef double @_ZSt3absd(double noundef %0) #1 comdat {
  %2 = alloca double, align 8
  store double %0, ptr %2, align 8
  %3 = load double, ptr %2, align 8
  %4 = call double @llvm.fabs.f64(double %3)
  ret double %4
}

; Function Attrs: mustprogress uwtable
define linkonce_odr hidden noundef double @_ZN2cv6cv_absIdEET_S1_(double noundef %0) #0 comdat {
  %2 = alloca double, align 8
  store double %0, ptr %2, align 8
  %3 = load double, ptr %2, align 8
  %4 = call noundef double @_ZSt3absd(double noundef %3)
  ret double %4
}

; Function Attrs: mustprogress uwtable
define internal noundef double @_ZN2cvL6normL1IddEET0_PKT_i(ptr noundef %0, i32 noundef %1) #0 {
  %3 = alloca ptr, align 8
  %4 = alloca i32, align 4
  %5 = alloca double, align 8
  %6 = alloca i32, align 4
  store ptr %0, ptr %3, align 8
  store i32 %1, ptr %4, align 4
  store double 0.000000e+00, ptr %5, align 8
  store i32 0, ptr %6, align 4
  br label %7

7:                                                ; preds = %20, %2
  %8 = load i32, ptr %6, align 4
  %9 = load i32, ptr %4, align 4
  %10 = icmp slt i32 %8, %9
  br i1 %10, label %11, label %23

11:                                               ; preds = %7
  %12 = load ptr, ptr %3, align 8
  %13 = load i32, ptr %6, align 4
  %14 = sext i32 %13 to i64
  %15 = getelementptr inbounds double, ptr %12, i64 %14
  %16 = load double, ptr %15, align 8
  %17 = call noundef double @_ZN2cv6cv_absIdEET_S1_(double noundef %16)
  %18 = load double, ptr %5, align 8
  %19 = fadd double %18, %17
  store double %19, ptr %5, align 8
  br label %20

20:                                               ; preds = %11
  %21 = load i32, ptr %6, align 4
  %22 = add nsw i32 %21, 1
  store i32 %22, ptr %6, align 4
  br label %7, !llvm.loop !66

23:                                               ; preds = %7
  %24 = load double, ptr %5, align 8
  ret double %24
}

; Function Attrs: mustprogress uwtable
define linkonce_odr hidden noundef i32 @_ZN2cv7normL1_IddEEiPKT_PKhPT0_ii(ptr noundef %0, ptr noundef %1, ptr noundef %2, i32 noundef %3, i32 noundef %4) #0 comdat {
  %6 = alloca ptr, align 8
  %7 = alloca ptr, align 8
  %8 = alloca ptr, align 8
  %9 = alloca i32, align 4
  %10 = alloca i32, align 4
  %11 = alloca double, align 8
  %12 = alloca i32, align 4
  %13 = alloca i32, align 4
  store ptr %0, ptr %6, align 8
  store ptr %1, ptr %7, align 8
  store ptr %2, ptr %8, align 8
  store i32 %3, ptr %9, align 4
  store i32 %4, ptr %10, align 4
  %14 = load ptr, ptr %8, align 8
  %15 = load double, ptr %14, align 8
  store double %15, ptr %11, align 8
  %16 = load ptr, ptr %7, align 8
  %17 = icmp ne ptr %16, null
  br i1 %17, label %26, label %18

18:                                               ; preds = %5
  %19 = load ptr, ptr %6, align 8
  %20 = load i32, ptr %9, align 4
  %21 = load i32, ptr %10, align 4
  %22 = mul nsw i32 %20, %21
  %23 = call noundef double @_ZN2cvL6normL1IddEET0_PKT_i(ptr noundef %19, i32 noundef %22)
  %24 = load double, ptr %11, align 8
  %25 = fadd double %24, %23
  store double %25, ptr %11, align 8
  br label %65

26:                                               ; preds = %5
  store i32 0, ptr %12, align 4
  br label %27

27:                                               ; preds = %57, %26
  %28 = load i32, ptr %12, align 4
  %29 = load i32, ptr %9, align 4
  %30 = icmp slt i32 %28, %29
  br i1 %30, label %31, label %64

31:                                               ; preds = %27
  %32 = load ptr, ptr %7, align 8
  %33 = load i32, ptr %12, align 4
  %34 = sext i32 %33 to i64
  %35 = getelementptr inbounds i8, ptr %32, i64 %34
  %36 = load i8, ptr %35, align 1
  %37 = icmp ne i8 %36, 0
  br i1 %37, label %38, label %56

38:                                               ; preds = %31
  store i32 0, ptr %13, align 4
  br label %39

39:                                               ; preds = %52, %38
  %40 = load i32, ptr %13, align 4
  %41 = load i32, ptr %10, align 4
  %42 = icmp slt i32 %40, %41
  br i1 %42, label %43, label %55

43:                                               ; preds = %39
  %44 = load ptr, ptr %6, align 8
  %45 = load i32, ptr %13, align 4
  %46 = sext i32 %45 to i64
  %47 = getelementptr inbounds double, ptr %44, i64 %46
  %48 = load double, ptr %47, align 8
  %49 = call noundef double @_ZN2cv6cv_absIdEET_S1_(double noundef %48)
  %50 = load double, ptr %11, align 8
  %51 = fadd double %50, %49
  store double %51, ptr %11, align 8
  br label %52

52:                                               ; preds = %43
  %53 = load i32, ptr %13, align 4
  %54 = add nsw i32 %53, 1
  store i32 %54, ptr %13, align 4
  br label %39, !llvm.loop !64

55:                                               ; preds = %39
  br label %56

56:                                               ; preds = %55, %31
  br label %57

57:                                               ; preds = %56
  %58 = load i32, ptr %12, align 4
  %59 = add nsw i32 %58, 1
  store i32 %59, ptr %12, align 4
  %60 = load i32, ptr %10, align 4
  %61 = load ptr, ptr %6, align 8
  %62 = sext i32 %60 to i64
  %63 = getelementptr inbounds double, ptr %61, i64 %62
  store ptr %63, ptr %6, align 8
  br label %27, !llvm.loop !65

64:                                               ; preds = %27
  br label %65

65:                                               ; preds = %64, %18
  %66 = load double, ptr %11, align 8
  %67 = load ptr, ptr %8, align 8
  store double %66, ptr %67, align 8
  ret i32 0
}

; Function Attrs: mustprogress uwtable
define internal noundef i32 @_ZN2cvL10normL1_64fEPKdPKhPdii(ptr noundef %0, ptr noundef %1, ptr noundef %2, i32 noundef %3, i32 noundef %4) #0 {
  %6 = alloca ptr, align 8
  %7 = alloca ptr, align 8
  %8 = alloca ptr, align 8
  %9 = alloca i32, align 4
  %10 = alloca i32, align 4
  store ptr %0, ptr %6, align 8
  store ptr %1, ptr %7, align 8
  store ptr %2, ptr %8, align 8
  store i32 %3, ptr %9, align 4
  store i32 %4, ptr %10, align 4
  %11 = load ptr, ptr %6, align 8
  %12 = load ptr, ptr %7, align 8
  %13 = load ptr, ptr %8, align 8
  %14 = load i32, ptr %9, align 4
  %15 = load i32, ptr %10, align 4
  %16 = call noundef i32 @_ZN2cv7normL1_IddEEiPKT_PKhPT0_ii(ptr noundef %11, ptr noundef %12, ptr noundef %13, i32 noundef %14, i32 noundef %15)
  ret i32 %16
}